target datalayout = "e-m:e-p270:32:32-p271:32:32-p272:64:64-i64:64-i128:128-f80:128-n8:16:32:64-S128"
target triple = "x86_64-pc-linux-gnu"

%struct._zend_array = type { %struct._zend_refcounted_h, %union.anon.4, i32, %union.anon.6, i32, i32, i32, i32, i64, ptr }
%struct._zend_refcounted_h = type { i32, %union.anon }
%union.anon = type { i32 }
%union.anon.4 = type { i32 }
%union.anon.6 = type { ptr }
%struct._zend_stack = type { i32, i32, i32, ptr }
%struct._zend_executor_globals = type { %struct._zval_struct, %struct._zval_struct, [32 x ptr], ptr, ptr, %struct._zend_array, %struct._zend_array, ptr, i32, i32, ptr, ptr, ptr, ptr, ptr, ptr, i64, ptr, ptr, i32, i32, i64, i32, i32, i32, i8, i8, %struct.zend_atomic_bool_s, %struct.zend_atomic_bool_s, ptr, i64, ptr, ptr, %struct._zend_array, %struct._zend_array, i32, i8, %struct._zval_struct, %struct._zval_struct, %struct._zend_stack, %struct._zend_stack, %struct._zend_stack, ptr, i32, i32, i64, ptr, ptr, ptr, %struct._zend_objects_store, ptr, ptr, ptr, [3 x %struct._zend_op], ptr, i8, i8, i64, i32, i32, ptr, [16 x %struct._HashTableIterator], ptr, %union._zend_function, %struct._zend_op, %struct._zend_array, i64, %struct.zend_get_gc_buffer, ptr, ptr, ptr, i64, i8, i32, ptr, ptr, i64, %struct._zend_call_stack, i64, i64, [6 x ptr] }
%struct.zend_atomic_bool_s = type { i8 }
%struct._zval_struct = type { %union._zend_value, %union.anon.0, %union.anon.3 }
%union._zend_value = type { i64 }
%union.anon.0 = type { i32 }
%union.anon.3 = type { i32 }
%struct._zend_objects_store = type { ptr, i32, i32, i32 }
%struct._HashTableIterator = type { ptr, i32, i32 }
%union._zend_function = type { %struct._zend_op_array }
%struct._zend_op_array = type { i8, [3 x i8], i32, ptr, ptr, ptr, i32, i32, ptr, ptr, ptr, ptr, i32, i32, i32, i32, ptr, ptr, ptr, ptr, ptr, i32, i32, ptr, ptr, ptr, i32, i32, i32, i32, ptr, ptr, [6 x ptr] }
%struct._zend_op = type { ptr, %union._znode_op, %union._znode_op, %union._znode_op, i32, i32, i8, i8, i8, i8 }
%union._znode_op = type { i32 }
%struct.zend_get_gc_buffer = type { ptr, ptr, ptr }
%struct._zend_call_stack = type { ptr, i64 }
%struct._zend_error_info = type { i32, i32, ptr, ptr }

@executor_globals = external global %struct._zend_executor_globals, align 8

; Function Attrs: nounwind uwtable
define void @zend_free_recorded_errors() #0 {
  %1 = alloca ptr, align 8
  %2 = alloca ptr, align 8
  %3 = alloca i32, align 4
  %4 = alloca i32, align 4
  %5 = alloca ptr, align 8
  %6 = alloca i32, align 4
  %7 = alloca i32, align 4
  %8 = alloca ptr, align 8
  %9 = alloca i32, align 4
  %10 = alloca ptr, align 8
  %11 = load i32, ptr getelementptr inbounds (%struct._zend_executor_globals, ptr @executor_globals, i32 0, i32 73), align 4
  %12 = icmp ne i32 %11, 0
  br i1 %12, label %14, label %13

13:                                               ; preds = %0
  br label %99

14:                                               ; preds = %0
  store i32 0, ptr %9, align 4
  br label %15

15:                                               ; preds = %94, %14
  %16 = load i32, ptr %9, align 4
  %17 = load i32, ptr getelementptr inbounds (%struct._zend_executor_globals, ptr @executor_globals, i32 0, i32 73), align 4
  %18 = icmp ult i32 %16, %17
  br i1 %18, label %19, label %97

19:                                               ; preds = %15
  %20 = load ptr, ptr getelementptr inbounds (%struct._zend_executor_globals, ptr @executor_globals, i32 0, i32 74), align 8
  %21 = load i32, ptr %9, align 4
  %22 = zext i32 %21 to i64
  %23 = getelementptr inbounds ptr, ptr %20, i64 %22
  %24 = load ptr, ptr %23, align 8
  store ptr %24, ptr %10, align 8
  %25 = load ptr, ptr %10, align 8
  %26 = getelementptr inbounds %struct._zend_error_info, ptr %25, i32 0, i32 2
  %27 = load ptr, ptr %26, align 8
  store ptr %27, ptr %5, align 8
  %28 = load ptr, ptr %5, align 8
  %29 = getelementptr inbounds %struct._zend_refcounted_h, ptr %28, i32 0, i32 1
  %30 = load i32, ptr %29, align 4
  store i32 %30, ptr %3, align 4
  %31 = load i32, ptr %3, align 4
  %32 = and i32 %31, 1008
  %33 = and i32 %32, 64
  %34 = icmp ne i32 %33, 0
  br i1 %34, label %58, label %35

35:                                               ; preds = %19
  %36 = load ptr, ptr %5, align 8
  store ptr %36, ptr %2, align 8
  %37 = load ptr, ptr %2, align 8
  %38 = load i32, ptr %37, align 4
  %39 = icmp ugt i32 %38, 0
  call void @llvm.assume(i1 %39)
  %40 = load ptr, ptr %2, align 8
  %41 = load i32, ptr %40, align 4
  %42 = add i32 %41, -1
  store i32 %42, ptr %40, align 4
  %43 = icmp eq i32 %42, 0
  br i1 %43, label %44, label %57

44:                                               ; preds = %35
  %45 = load ptr, ptr %5, align 8
  %46 = getelementptr inbounds %struct._zend_refcounted_h, ptr %45, i32 0, i32 1
  %47 = load i32, ptr %46, align 4
  store i32 %47, ptr %4, align 4
  %48 = load i32, ptr %4, align 4
  %49 = and i32 %48, 1008
  %50 = and i32 %49, 128
  %51 = icmp ne i32 %50, 0
  br i1 %51, label %52, label %54

52:                                               ; preds = %44
  %53 = load ptr, ptr %5, align 8
  call void @free(ptr noundef %53) #18
  br label %56

54:                                               ; preds = %44
  %55 = load ptr, ptr %5, align 8
  call void @_efree(ptr noundef %55) #18
  br label %56

56:                                               ; preds = %54, %52
  br label %57

57:                                               ; preds = %56, %35
  br label %58

58:                                               ; preds = %57, %19
  %59 = load ptr, ptr %10, align 8
  %60 = getelementptr inbounds %struct._zend_error_info, ptr %59, i32 0, i32 3
  %61 = load ptr, ptr %60, align 8
  store ptr %61, ptr %8, align 8
  %62 = load ptr, ptr %8, align 8
  %63 = getelementptr inbounds %struct._zend_refcounted_h, ptr %62, i32 0, i32 1
  %64 = load i32, ptr %63, align 4
  store i32 %64, ptr %6, align 4
  %65 = load i32, ptr %6, align 4
  %66 = and i32 %65, 1008
  %67 = and i32 %66, 64
  %68 = icmp ne i32 %67, 0
  br i1 %68, label %92, label %69

69:                                               ; preds = %58
  %70 = load ptr, ptr %8, align 8
  store ptr %70, ptr %1, align 8
  %71 = load ptr, ptr %1, align 8
  %72 = load i32, ptr %71, align 4
  %73 = icmp ugt i32 %72, 0
  call void @llvm.assume(i1 %73)
  %74 = load ptr, ptr %1, align 8
  %75 = load i32, ptr %74, align 4
  %76 = add i32 %75, -1
  store i32 %76, ptr %74, align 4
  %77 = icmp eq i32 %76, 0
  br i1 %77, label %78, label %91

78:                                               ; preds = %69
  %79 = load ptr, ptr %8, align 8
  %80 = getelementptr inbounds %struct._zend_refcounted_h, ptr %79, i32 0, i32 1
  %81 = load i32, ptr %80, align 4
  store i32 %81, ptr %7, align 4
  %82 = load i32, ptr %7, align 4
  %83 = and i32 %82, 1008
  %84 = and i32 %83, 128
  %85 = icmp ne i32 %84, 0
  br i1 %85, label %86, label %88

86:                                               ; preds = %78
  %87 = load ptr, ptr %8, align 8
  call void @free(ptr noundef %87) #18
  br label %90

88:                                               ; preds = %78
  %89 = load ptr, ptr %8, align 8
  call void @_efree(ptr noundef %89) #18
  br label %90

90:                                               ; preds = %88, %86
  br label %91

91:                                               ; preds = %90, %69
  br label %92

92:                                               ; preds = %91, %58
  %93 = load ptr, ptr %10, align 8
  call void @_efree(ptr noundef %93)
  br label %94

94:                                               ; preds = %92
  %95 = load i32, ptr %9, align 4
  %96 = add i32 %95, 1
  store i32 %96, ptr %9, align 4
  br label %15

97:                                               ; preds = %15
  %98 = load ptr, ptr getelementptr inbounds (%struct._zend_executor_globals, ptr @executor_globals, i32 0, i32 74), align 8
  call void @_efree(ptr noundef %98)
  store ptr null, ptr getelementptr inbounds (%struct._zend_executor_globals, ptr @executor_globals, i32 0, i32 74), align 8
  store i32 0, ptr getelementptr inbounds (%struct._zend_executor_globals, ptr @executor_globals, i32 0, i32 73), align 4
  br label %99

99:                                               ; preds = %97, %13
  ret void
}