; Function Attrs: nounwind uwtable
define void @zend_free_recorded_errors() local_unnamed_addr #0 {
  %1 = load i32, ptr getelementptr inbounds (%struct._zend_executor_globals, ptr @executor_globals, i64 0, i32 73), align 4
  %.not = icmp eq i32 %1, 0
  br i1 %.not, label %39, label %.lr.ph

.lr.ph:                                           ; preds = %0, %34
  %indvars.iv = phi i64 [ %indvars.iv.next, %34 ], [ 0, %0 ]
  %2 = load ptr, ptr getelementptr inbounds (%struct._zend_executor_globals, ptr @executor_globals, i64 0, i32 74), align 8
  %3 = getelementptr inbounds ptr, ptr %2, i64 %indvars.iv
  %4 = load ptr, ptr %3, align 8
  %5 = getelementptr inbounds i8, ptr %4, i64 8
  %6 = load ptr, ptr %5, align 8
  %7 = getelementptr inbounds i8, ptr %6, i64 4
  %8 = load i32, ptr %7, align 4
  %9 = and i32 %8, 64
  %.not23 = icmp eq i32 %9, 0
  br i1 %.not23, label %10, label %19

10:                                               ; preds = %.lr.ph
  %11 = load i32, ptr %6, align 4
  %12 = icmp ne i32 %11, 0
  tail call void @llvm.assume(i1 %12)
  %13 = add i32 %11, -1
  store i32 %13, ptr %6, align 4
  %14 = icmp eq i32 %13, 0
  br i1 %14, label %15, label %19

15:                                               ; preds = %10
  %16 = and i32 %8, 128
  %.not24 = icmp eq i32 %16, 0
  br i1 %.not24, label %18, label %17

17:                                               ; preds = %15
  tail call void @free(ptr noundef nonnull %6) #30
  br label %19

18:                                               ; preds = %15
  tail call void @_efree(ptr noundef nonnull %6) #30
  br label %19

19:                                               ; preds = %10, %18, %17, %.lr.ph
  %20 = getelementptr inbounds i8, ptr %4, i64 16
  %21 = load ptr, ptr %20, align 8
  %22 = getelementptr inbounds i8, ptr %21, i64 4
  %23 = load i32, ptr %22, align 4
  %24 = and i32 %23, 64
  %.not25 = icmp eq i32 %24, 0
  br i1 %.not25, label %25, label %34

25:                                               ; preds = %19
  %26 = load i32, ptr %21, align 4
  %27 = icmp ne i32 %26, 0
  tail call void @llvm.assume(i1 %27)
  %28 = add i32 %26, -1
  store i32 %28, ptr %21, align 4
  %29 = icmp eq i32 %28, 0
  br i1 %29, label %30, label %34

30:                                               ; preds = %25
  %31 = and i32 %23, 128
  %.not26 = icmp eq i32 %31, 0
  br i1 %.not26, label %33, label %32

32:                                               ; preds = %30
  tail call void @free(ptr noundef nonnull %21) #30
  br label %34

33:                                               ; preds = %30
  tail call void @_efree(ptr noundef nonnull %21) #30
  br label %34

34:                                               ; preds = %25, %33, %32, %19
  tail call void @_efree(ptr noundef nonnull %4) #30
  %indvars.iv.next = add nuw nsw i64 %indvars.iv, 1
  %35 = load i32, ptr getelementptr inbounds (%struct._zend_executor_globals, ptr @executor_globals, i64 0, i32 73), align 4
  %36 = zext i32 %35 to i64
  %37 = icmp ult i64 %indvars.iv.next, %36
  br i1 %37, label %.lr.ph, label %._crit_edge

._crit_edge:                                      ; preds = %34
  %38 = load ptr, ptr getelementptr inbounds (%struct._zend_executor_globals, ptr @executor_globals, i64 0, i32 74), align 8
  tail call void @_efree(ptr noundef %38) #30
  store ptr null, ptr getelementptr inbounds (%struct._zend_executor_globals, ptr @executor_globals, i64 0, i32 74), align 8
  store i32 0, ptr getelementptr inbounds (%struct._zend_executor_globals, ptr @executor_globals, i64 0, i32 73), align 4
  br label %39

39:                                               ; preds = %0, %._crit_edge
  ret void
}